; Function Attrs: mustprogress uwtable
define void @_ZNK3gmx12EnergyOutput23printEnergyConservationEP8_IO_FILEib(ptr noundef nonnull readonly align 8 captures(none) dereferenceable(392) %0, ptr noundef %1, i32 noundef %2, i1 noundef zeroext %3) local_unnamed_addr #1 align 2 personality ptr @__gxx_personality_v0 {
  %5 = alloca %"class.std::__cxx11::basic_string", align 8
  %6 = alloca %"class.std::__cxx11::basic_string", align 8
  %7 = icmp eq ptr %1, null
  br i1 %7, label %45, label %8

8:                                                ; preds = %4
  %9 = getelementptr inbounds nuw i8, ptr %0, i64 384
  %10 = load ptr, ptr %9, align 8, !tbaa !285
  %.not = icmp eq ptr %10, null
  br i1 %.not, label %42, label %11

11:                                               ; preds = %8
  call void @llvm.lifetime.start.p0(i64 32, ptr nonnull %5) #23
  call void (ptr, ptr, ...) @_ZN3gmx12formatStringB5cxx11EPKcz(ptr dead_on_unwind nonnull writable sret(%"class.std::__cxx11::basic_string") align 8 %5, ptr noundef nonnull @.str.134, i32 noundef %2)
  call void @llvm.lifetime.start.p0(i64 32, ptr nonnull %6) #23
  %12 = load ptr, ptr %9, align 8, !tbaa !285
  invoke void @_ZNK3gmx18EnergyDriftTracker17energyDriftStringERKNSt7__cxx1112basic_stringIcSt11char_traitsIcESaIcEEE(ptr dead_on_unwind nonnull writable sret(%"class.std::__cxx11::basic_string") align 8 %6, ptr noundef nonnull align 8 dereferenceable(44) %12, ptr noundef nonnull align 8 dereferenceable(32) %5)
          to label %13 unwind label %32

13:                                               ; preds = %11
  %14 = load ptr, ptr %6, align 8, !tbaa !236
  %15 = call i32 (ptr, ptr, ...) @fprintf(ptr noundef nonnull %1, ptr noundef nonnull @.str.135, ptr noundef %14) #23
  %16 = load ptr, ptr %6, align 8, !tbaa !236
  %17 = getelementptr inbounds nuw i8, ptr %6, i64 16
  %18 = icmp eq ptr %16, %17
  br i1 %18, label %_ZNKSt7__cxx1112basic_stringIcSt11char_traitsIcESaIcEE11_M_is_localEv.exit.thread.i.i, label %_ZNKSt7__cxx1112basic_stringIcSt11char_traitsIcESaIcEE11_M_is_localEv.exit.i.i

_ZNKSt7__cxx1112basic_stringIcSt11char_traitsIcESaIcEE11_M_is_localEv.exit.thread.i.i: ; preds = %13
  %19 = getelementptr inbounds nuw i8, ptr %6, i64 8
  %20 = load i64, ptr %19, align 8, !tbaa !239
  %21 = icmp ult i64 %20, 16
  call void @llvm.assume(i1 %21)
  br label %_ZNSt7__cxx1112basic_stringIcSt11char_traitsIcESaIcEED2Ev.exit

_ZNKSt7__cxx1112basic_stringIcSt11char_traitsIcESaIcEE11_M_is_localEv.exit.i.i: ; preds = %13
  %22 = load i64, ptr %17, align 8, !tbaa !240
  %23 = add i64 %22, 1
  call void @_ZdlPvm(ptr noundef %16, i64 noundef %23) #25
  br label %_ZNSt7__cxx1112basic_stringIcSt11char_traitsIcESaIcEED2Ev.exit

_ZNSt7__cxx1112basic_stringIcSt11char_traitsIcESaIcEED2Ev.exit: ; preds = %_ZNKSt7__cxx1112basic_stringIcSt11char_traitsIcESaIcEE11_M_is_localEv.exit.thread.i.i, %_ZNKSt7__cxx1112basic_stringIcSt11char_traitsIcESaIcEE11_M_is_localEv.exit.i.i
  call void @llvm.lifetime.end.p0(i64 32, ptr nonnull %6) #23
  %24 = load ptr, ptr %5, align 8, !tbaa !236
  %25 = getelementptr inbounds nuw i8, ptr %5, i64 16
  %26 = icmp eq ptr %24, %25
  br i1 %26, label %_ZNKSt7__cxx1112basic_stringIcSt11char_traitsIcESaIcEE11_M_is_localEv.exit.thread.i.i8, label %_ZNKSt7__cxx1112basic_stringIcSt11char_traitsIcESaIcEE11_M_is_localEv.exit.i.i7

_ZNKSt7__cxx1112basic_stringIcSt11char_traitsIcESaIcEE11_M_is_localEv.exit.thread.i.i8: ; preds = %_ZNSt7__cxx1112basic_stringIcSt11char_traitsIcESaIcEED2Ev.exit
  %27 = getelementptr inbounds nuw i8, ptr %5, i64 8
  %28 = load i64, ptr %27, align 8, !tbaa !239
  %29 = icmp ult i64 %28, 16
  call void @llvm.assume(i1 %29)
  br label %_ZNSt7__cxx1112basic_stringIcSt11char_traitsIcESaIcEED2Ev.exit9

_ZNKSt7__cxx1112basic_stringIcSt11char_traitsIcESaIcEE11_M_is_localEv.exit.i.i7: ; preds = %_ZNSt7__cxx1112basic_stringIcSt11char_traitsIcESaIcEED2Ev.exit
  %30 = load i64, ptr %25, align 8, !tbaa !240
  %31 = add i64 %30, 1
  call void @_ZdlPvm(ptr noundef %24, i64 noundef %31) #25
  br label %_ZNSt7__cxx1112basic_stringIcSt11char_traitsIcESaIcEED2Ev.exit9

_ZNSt7__cxx1112basic_stringIcSt11char_traitsIcESaIcEED2Ev.exit9: ; preds = %_ZNKSt7__cxx1112basic_stringIcSt11char_traitsIcESaIcEE11_M_is_localEv.exit.thread.i.i8, %_ZNKSt7__cxx1112basic_stringIcSt11char_traitsIcESaIcEE11_M_is_localEv.exit.i.i7
  call void @llvm.lifetime.end.p0(i64 32, ptr nonnull %5) #23
  br label %45

32:                                               ; preds = %11
  %33 = landingpad { ptr, i32 }
          cleanup
  call void @llvm.lifetime.end.p0(i64 32, ptr nonnull %6) #23
  %34 = load ptr, ptr %5, align 8, !tbaa !236
  %35 = getelementptr inbounds nuw i8, ptr %5, i64 16
  %36 = icmp eq ptr %34, %35
  br i1 %36, label %_ZNKSt7__cxx1112basic_stringIcSt11char_traitsIcESaIcEE11_M_is_localEv.exit.thread.i.i11, label %_ZNKSt7__cxx1112basic_stringIcSt11char_traitsIcESaIcEE11_M_is_localEv.exit.i.i10

_ZNKSt7__cxx1112basic_stringIcSt11char_traitsIcESaIcEE11_M_is_localEv.exit.thread.i.i11: ; preds = %32
  %37 = getelementptr inbounds nuw i8, ptr %5, i64 8
  %38 = load i64, ptr %37, align 8, !tbaa !239
  %39 = icmp ult i64 %38, 16
  call void @llvm.assume(i1 %39)
  br label %_ZNSt7__cxx1112basic_stringIcSt11char_traitsIcESaIcEED2Ev.exit12

_ZNKSt7__cxx1112basic_stringIcSt11char_traitsIcESaIcEE11_M_is_localEv.exit.i.i10: ; preds = %32
  %40 = load i64, ptr %35, align 8, !tbaa !240
  %41 = add i64 %40, 1
  call void @_ZdlPvm(ptr noundef %34, i64 noundef %41) #25
  br label %_ZNSt7__cxx1112basic_stringIcSt11char_traitsIcESaIcEED2Ev.exit12

_ZNSt7__cxx1112basic_stringIcSt11char_traitsIcESaIcEED2Ev.exit12: ; preds = %_ZNKSt7__cxx1112basic_stringIcSt11char_traitsIcESaIcEE11_M_is_localEv.exit.thread.i.i11, %_ZNKSt7__cxx1112basic_stringIcSt11char_traitsIcESaIcEE11_M_is_localEv.exit.i.i10
  call void @llvm.lifetime.end.p0(i64 32, ptr nonnull %5) #23
  resume { ptr, i32 } %33

42:                                               ; preds = %8
  br i1 %3, label %43, label %45

43:                                               ; preds = %42
  %44 = tail call i64 @fwrite(ptr nonnull @.str.136, i64 87, i64 1, ptr nonnull %1)
  br label %45

45:                                               ; preds = %42, %43, %4, %_ZNSt7__cxx1112basic_stringIcSt11char_traitsIcESaIcEED2Ev.exit9
  ret void
}